target datalayout = "e-m:e-p270:32:32-p271:32:32-p272:64:64-i64:64-i128:128-f80:128-n8:16:32:64-S128"
target triple = "x86_64-pc-linux-gnu"

%"class.std::__cxx11::basic_string" = type { %"struct.std::__cxx11::basic_string<char>::_Alloc_hider", i64, %union.anon }
%"struct.std::__cxx11::basic_string<char>::_Alloc_hider" = type { ptr }
%union.anon = type { i64, [8 x i8] }

@__func__._ZN2cv3hal11normHammingEPKhii = private unnamed_addr constant [12 x i8] c"normHamming\00", align 1
@.str.1 = private unnamed_addr constant [117 x i8] c"generated/home/dtcxzyw/WorkSpace/Projects/compilers/llvm-opt-benchmark/bench/opencv/opencv/modules/core/src/norm.cpp\00", align 1
@.str.2 = private unnamed_addr constant [87 x i8] c"HAL implementation normHammingDiff8u ==> hal_ni_normHammingDiff8u returned %d (0x%08x)\00", align 1

; Function Attrs: mustprogress nounwind uwtable
define linkonce_odr hidden noundef i32 @_Z24hal_ni_normHammingDiff8uPKhS0_iiPi(ptr noundef %0, ptr noundef %1, i32 noundef %2, i32 noundef %3, ptr noundef %4) #1 comdat {
  %6 = alloca ptr, align 8
  %7 = alloca ptr, align 8
  %8 = alloca i32, align 4
  %9 = alloca i32, align 4
  %10 = alloca ptr, align 8
  store ptr %0, ptr %6, align 8
  store ptr %1, ptr %7, align 8
  store i32 %2, ptr %8, align 4
  store i32 %3, ptr %9, align 4
  store ptr %4, ptr %10, align 8
  ret i32 1
}

; Function Attrs: mustprogress uwtable
define noundef i32 @_ZN2cv3hal11normHammingEPKhS2_ii(ptr noundef %0, ptr noundef %1, i32 noundef %2, i32 noundef %3) #0 personality ptr @__gxx_personality_v0 {
  %5 = alloca i32, align 4
  %6 = alloca ptr, align 8
  %7 = alloca ptr, align 8
  %8 = alloca i32, align 4
  %9 = alloca i32, align 4
  %10 = alloca i32, align 4
  %11 = alloca i32, align 4
  %12 = alloca %"class.std::__cxx11::basic_string", align 8
  %13 = alloca ptr, align 8
  %14 = alloca i32, align 4
  %15 = alloca ptr, align 8
  %16 = alloca i32, align 4
  %17 = alloca i32, align 4
  store ptr %0, ptr %6, align 8
  store ptr %1, ptr %7, align 8
  store i32 %2, ptr %8, align 4
  store i32 %3, ptr %9, align 4
  %18 = load ptr, ptr %6, align 8
  %19 = load ptr, ptr %7, align 8
  %20 = load i32, ptr %8, align 4
  %21 = load i32, ptr %9, align 4
  %22 = call noundef i32 @_Z24hal_ni_normHammingDiff8uPKhS0_iiPi(ptr noundef %18, ptr noundef %19, i32 noundef %20, i32 noundef %21, ptr noundef %10)
  store i32 %22, ptr %11, align 4
  %23 = load i32, ptr %11, align 4
  %24 = icmp eq i32 %23, 0
  br i1 %24, label %25, label %27

25:                                               ; preds = %4
  %26 = load i32, ptr %10, align 4
  store i32 %26, ptr %5, align 4
  br label %88

27:                                               ; preds = %4
  %28 = load i32, ptr %11, align 4
  %29 = icmp ne i32 %28, 1
  br i1 %29, label %30, label %38

30:                                               ; preds = %27
  %31 = load i32, ptr %11, align 4
  %32 = load i32, ptr %11, align 4
  call void (ptr, ptr, ...) @_ZN2cv6formatB5cxx11EPKcz(ptr dead_on_unwind writable sret(%"class.std::__cxx11::basic_string") align 8 %12, ptr noundef @.str.2, i32 noundef %31, i32 noundef %32)
  invoke void @_ZN2cv5errorEiRKNSt7__cxx1112basic_stringIcSt11char_traitsIcESaIcEEEPKcS9_i(i32 noundef -3, ptr noundef nonnull align 8 dereferenceable(32) %12, ptr noundef @__func__._ZN2cv3hal11normHammingEPKhii, ptr noundef @.str.1, i32 noundef 105) #10
          to label %33 unwind label %34

33:                                               ; preds = %30
  unreachable

34:                                               ; preds = %30
  %35 = landingpad { ptr, i32 }
          cleanup
  %36 = extractvalue { ptr, i32 } %35, 0
  store ptr %36, ptr %13, align 8
  %37 = extractvalue { ptr, i32 } %35, 1
  store i32 %37, ptr %14, align 4
  call void @_ZNSt7__cxx1112basic_stringIcSt11char_traitsIcESaIcEED1Ev(ptr noundef nonnull align 8 dereferenceable(32) %12) #11
  br label %90

38:                                               ; preds = %27
  br label %39

39:                                               ; preds = %38
  %40 = load i32, ptr %9, align 4
  %41 = icmp eq i32 %40, 1
  br i1 %41, label %42, label %47

42:                                               ; preds = %39
  %43 = load ptr, ptr %6, align 8
  %44 = load ptr, ptr %7, align 8
  %45 = load i32, ptr %8, align 4
  %46 = call noundef i32 @_ZN2cv3hal11normHammingEPKhS2_i(ptr noundef %43, ptr noundef %44, i32 noundef %45)
  store i32 %46, ptr %5, align 4
  br label %88

47:                                               ; preds = %39
  store ptr null, ptr %15, align 8
  %48 = load i32, ptr %9, align 4
  %49 = icmp eq i32 %48, 2
  br i1 %49, label %50, label %51

50:                                               ; preds = %47
  store ptr @_ZN2cv3halL14popCountTable2E, ptr %15, align 8
  br label %57

51:                                               ; preds = %47
  %52 = load i32, ptr %9, align 4
  %53 = icmp eq i32 %52, 4
  br i1 %53, label %54, label %55

54:                                               ; preds = %51
  store ptr @_ZN2cv3halL14popCountTable4E, ptr %15, align 8
  br label %56

55:                                               ; preds = %51
  store i32 -1, ptr %5, align 4
  br label %88

56:                                               ; preds = %54
  br label %57

57:                                               ; preds = %56, %50
  store i32 0, ptr %16, align 4
  store i32 0, ptr %17, align 4
  br label %58

58:                                               ; preds = %83, %57
  %59 = load i32, ptr %16, align 4
  %60 = load i32, ptr %8, align 4
  %61 = icmp slt i32 %59, %60
  br i1 %61, label %62, label %86

62:                                               ; preds = %58
  %63 = load ptr, ptr %15, align 8
  %64 = load ptr, ptr %6, align 8
  %65 = load i32, ptr %16, align 4
  %66 = sext i32 %65 to i64
  %67 = getelementptr inbounds i8, ptr %64, i64 %66
  %68 = load i8, ptr %67, align 1
  %69 = zext i8 %68 to i32
  %70 = load ptr, ptr %7, align 8
  %71 = load i32, ptr %16, align 4
  %72 = sext i32 %71 to i64
  %73 = getelementptr inbounds i8, ptr %70, i64 %72
  %74 = load i8, ptr %73, align 1
  %75 = zext i8 %74 to i32
  %76 = xor i32 %69, %75
  %77 = sext i32 %76 to i64
  %78 = getelementptr inbounds i8, ptr %63, i64 %77
  %79 = load i8, ptr %78, align 1
  %80 = zext i8 %79 to i32
  %81 = load i32, ptr %17, align 4
  %82 = add nsw i32 %81, %80
  store i32 %82, ptr %17, align 4
  br label %83

83:                                               ; preds = %62
  %84 = load i32, ptr %16, align 4
  %85 = add nsw i32 %84, 1
  store i32 %85, ptr %16, align 4
  br label %58, !llvm.loop !6

86:                                               ; preds = %58
  %87 = load i32, ptr %17, align 4
  store i32 %87, ptr %5, align 4
  br label %88

88:                                               ; preds = %86, %55, %42, %25
  %89 = load i32, ptr %5, align 4
  ret i32 %89

90:                                               ; preds = %34
  %91 = load ptr, ptr %13, align 8
  %92 = load i32, ptr %14, align 4
  %93 = insertvalue { ptr, i32 } poison, ptr %91, 0
  %94 = insertvalue { ptr, i32 } %93, i32 %92, 1
  resume { ptr, i32 } %94
}